target datalayout = "e-m:e-p270:32:32-p271:32:32-p272:64:64-i64:64-f80:128-n8:16:32:64-S128"
target triple = "x86_64-pc-linux-gnu"

@.str = private unnamed_addr constant [5 x i8] c"%d%d\00", align 1
@.str.1 = private unnamed_addr constant [3 x i8] c"%d\00", align 1
@.str.2 = private unnamed_addr constant [4 x i8] c"%d\0A\00", align 1

; Function Attrs: noinline nounwind uwtable
define dso_local i32 @judge([101 x i32]* %0, i32 %1, i32 %2, i32 %3, i32 %4) #0 {
  %6 = alloca i32, align 4
  %7 = alloca [101 x i32]*, align 8
  %8 = alloca i32, align 4
  %9 = alloca i32, align 4
  %10 = alloca i32, align 4
  %11 = alloca i32, align 4
  store [101 x i32]* %0, [101 x i32]** %7, align 8
  store i32 %1, i32* %8, align 4
  store i32 %2, i32* %9, align 4
  store i32 %3, i32* %10, align 4
  store i32 %4, i32* %11, align 4
  %12 = load i32, i32* %10, align 4
  %13 = icmp eq i32 %12, 0
  br i1 %13, label %14, label %20

14:                                               ; preds = %5
  %15 = load i32, i32* %11, align 4
  %16 = load i32, i32* %9, align 4
  %17 = sub nsw i32 %16, 1
  %18 = icmp slt i32 %15, %17
  br i1 %18, label %19, label %20

19:                                               ; preds = %14
  store i32 2, i32* %6, align 4
  br label %107

20:                                               ; preds = %14, %5
  %21 = load i32, i32* %11, align 4
  %22 = load i32, i32* %9, align 4
  %23 = sub nsw i32 %22, 1
  %24 = icmp eq i32 %21, %23
  br i1 %24, label %25, label %31

25:                                               ; preds = %20
  %26 = load i32, i32* %10, align 4
  %27 = load i32, i32* %8, align 4
  %28 = sub nsw i32 %27, 1
  %29 = icmp slt i32 %26, %28
  br i1 %29, label %30, label %31

30:                                               ; preds = %25
  store i32 3, i32* %6, align 4
  br label %107

31:                                               ; preds = %25, %20
  %32 = load i32, i32* %10, align 4
  %33 = load i32, i32* %8, align 4
  %34 = sub nsw i32 %33, 1
  %35 = icmp eq i32 %32, %34
  br i1 %35, label %36, label %40

36:                                               ; preds = %31
  %37 = load i32, i32* %11, align 4
  %38 = icmp sgt i32 %37, 0
  br i1 %38, label %39, label %40

39:                                               ; preds = %36
  store i32 4, i32* %6, align 4
  br label %107

40:                                               ; preds = %36, %31
  %41 = load i32, i32* %11, align 4
  %42 = icmp eq i32 %41, 0
  br i1 %42, label %43, label %47

43:                                               ; preds = %40
  %44 = load i32, i32* %10, align 4
  %45 = icmp sgt i32 %44, 1
  br i1 %45, label %46, label %47

46:                                               ; preds = %43
  store i32 1, i32* %6, align 4
  br label %107

47:                                               ; preds = %43, %40
  %48 = load [101 x i32]*, [101 x i32]** %7, align 8
  %49 = load i32, i32* %10, align 4
  %50 = sub nsw i32 %49, 1
  %51 = sext i32 %50 to i64
  %52 = getelementptr inbounds [101 x i32], [101 x i32]* %48, i64 %51
  %53 = load i32, i32* %11, align 4
  %54 = sext i32 %53 to i64
  %55 = getelementptr inbounds [101 x i32], [101 x i32]* %52, i64 0, i64 %54
  %56 = load i32, i32* %55, align 4
  %57 = icmp ne i32 %56, -1
  br i1 %57, label %58, label %70

58:                                               ; preds = %47
  %59 = load [101 x i32]*, [101 x i32]** %7, align 8
  %60 = load i32, i32* %10, align 4
  %61 = sext i32 %60 to i64
  %62 = getelementptr inbounds [101 x i32], [101 x i32]* %59, i64 %61
  %63 = load i32, i32* %11, align 4
  %64 = sub nsw i32 %63, 1
  %65 = sext i32 %64 to i64
  %66 = getelementptr inbounds [101 x i32], [101 x i32]* %62, i64 0, i64 %65
  %67 = load i32, i32* %66, align 4
  %68 = icmp eq i32 %67, -1
  br i1 %68, label %69, label %70

69:                                               ; preds = %58
  store i32 1, i32* %6, align 4
  br label %107

70:                                               ; preds = %58, %47
  %71 = load [101 x i32]*, [101 x i32]** %7, align 8
  %72 = load i32, i32* %10, align 4
  %73 = sext i32 %72 to i64
  %74 = getelementptr inbounds [101 x i32], [101 x i32]* %71, i64 %73
  %75 = load i32, i32* %11, align 4
  %76 = add nsw i32 %75, 1
  %77 = sext i32 %76 to i64
  %78 = getelementptr inbounds [101 x i32], [101 x i32]* %74, i64 0, i64 %77
  %79 = load i32, i32* %78, align 4
  %80 = icmp ne i32 %79, -1
  br i1 %80, label %81, label %82

81:                                               ; preds = %70
  store i32 2, i32* %6, align 4
  br label %107

82:                                               ; preds = %70
  %83 = load [101 x i32]*, [101 x i32]** %7, align 8
  %84 = load i32, i32* %10, align 4
  %85 = add nsw i32 %84, 1
  %86 = sext i32 %85 to i64
  %87 = getelementptr inbounds [101 x i32], [101 x i32]* %83, i64 %86
  %88 = load i32, i32* %11, align 4
  %89 = sext i32 %88 to i64
  %90 = getelementptr inbounds [101 x i32], [101 x i32]* %87, i64 0, i64 %89
  %91 = load i32, i32* %90, align 4
  %92 = icmp ne i32 %91, -1
  br i1 %92, label %93, label %94

93:                                               ; preds = %82
  store i32 3, i32* %6, align 4
  br label %107

94:                                               ; preds = %82
  %95 = load [101 x i32]*, [101 x i32]** %7, align 8
  %96 = load i32, i32* %10, align 4
  %97 = sext i32 %96 to i64
  %98 = getelementptr inbounds [101 x i32], [101 x i32]* %95, i64 %97
  %99 = load i32, i32* %11, align 4
  %100 = sub nsw i32 %99, 1
  %101 = sext i32 %100 to i64
  %102 = getelementptr inbounds [101 x i32], [101 x i32]* %98, i64 0, i64 %101
  %103 = load i32, i32* %102, align 4
  %104 = icmp ne i32 %103, -1
  br i1 %104, label %105, label %106

105:                                              ; preds = %94
  store i32 4, i32* %6, align 4
  br label %107

106:                                              ; preds = %94
  store i32 0, i32* %6, align 4
  br label %107

107:                                              ; preds = %106, %105, %93, %81, %69, %46, %39, %30, %19
  %108 = load i32, i32* %6, align 4
  ret i32 %108
}

; Function Attrs: noinline nounwind uwtable
define dso_local void @main() #0 {
  %1 = alloca i32, align 4
  %2 = alloca i32, align 4
  %3 = alloca i32, align 4
  %4 = alloca i32, align 4
  %5 = alloca [101 x [101 x i32]], align 16
  %6 = call i32 (i8*, ...) @__isoc99_scanf(i8* getelementptr inbounds ([5 x i8], [5 x i8]* @.str, i64 0, i64 0), i32* %1, i32* %2)
  store i32 0, i32* %3, align 4
  br label %7

7:                                                ; preds = %28, %0
  %8 = load i32, i32* %3, align 4
  %9 = load i32, i32* %1, align 4
  %10 = icmp slt i32 %8, %9
  br i1 %10, label %11, label %31

11:                                               ; preds = %7
  store i32 0, i32* %4, align 4
  br label %12

12:                                               ; preds = %24, %11
  %13 = load i32, i32* %4, align 4
  %14 = load i32, i32* %2, align 4
  %15 = icmp slt i32 %13, %14
  br i1 %15, label %16, label %27

16:                                               ; preds = %12
  %17 = load i32, i32* %3, align 4
  %18 = sext i32 %17 to i64
  %19 = getelementptr inbounds [101 x [101 x i32]], [101 x [101 x i32]]* %5, i64 0, i64 %18
  %20 = load i32, i32* %4, align 4
  %21 = sext i32 %20 to i64
  %22 = getelementptr inbounds [101 x i32], [101 x i32]* %19, i64 0, i64 %21
  %23 = call i32 (i8*, ...) @__isoc99_scanf(i8* getelementptr inbounds ([3 x i8], [3 x i8]* @.str.1, i64 0, i64 0), i32* %22)
  br label %24

24:                                               ; preds = %16
  %25 = load i32, i32* %4, align 4
  %26 = add nsw i32 %25, 1
  store i32 %26, i32* %4, align 4
  br label %12

27:                                               ; preds = %12
  br label %28

28:                                               ; preds = %27
  %29 = load i32, i32* %3, align 4
  %30 = add nsw i32 %29, 1
  store i32 %30, i32* %3, align 4
  br label %7

31:                                               ; preds = %7
  store i32 0, i32* %4, align 4
  store i32 0, i32* %3, align 4
  %32 = load i32, i32* %1, align 4
  %33 = icmp eq i32 %32, 1
  br i1 %33, label %34, label %42

34:                                               ; preds = %31
  %35 = load i32, i32* %2, align 4
  %36 = icmp eq i32 %35, 1
  br i1 %36, label %37, label %42

37:                                               ; preds = %34
  %38 = getelementptr inbounds [101 x [101 x i32]], [101 x [101 x i32]]* %5, i64 0, i64 0
  %39 = getelementptr inbounds [101 x i32], [101 x i32]* %38, i64 0, i64 0
  %40 = load i32, i32* %39, align 16
  %41 = call i32 (i8*, ...) @printf(i8* getelementptr inbounds ([4 x i8], [4 x i8]* @.str.2, i64 0, i64 0), i32 %40)
  br label %115

42:                                               ; preds = %34, %31
  br label %43

43:                                               ; preds = %95, %42
  %44 = getelementptr inbounds [101 x [101 x i32]], [101 x [101 x i32]]* %5, i64 0, i64 0
  %45 = load i32, i32* %1, align 4
  %46 = load i32, i32* %2, align 4
  %47 = load i32, i32* %3, align 4
  %48 = load i32, i32* %4, align 4
  %49 = call i32 @judge([101 x i32]* %44, i32 %45, i32 %46, i32 %47, i32 %48)
  %50 = icmp ne i32 %49, 0
  br i1 %50, label %51, label %96

51:                                               ; preds = %43
  %52 = load i32, i32* %3, align 4
  %53 = sext i32 %52 to i64
  %54 = getelementptr inbounds [101 x [101 x i32]], [101 x [101 x i32]]* %5, i64 0, i64 %53
  %55 = load i32, i32* %4, align 4
  %56 = sext i32 %55 to i64
  %57 = getelementptr inbounds [101 x i32], [101 x i32]* %54, i64 0, i64 %56
  %58 = load i32, i32* %57, align 4
  %59 = icmp sgt i32 %58, 0
  br i1 %59, label %60, label %69

60:                                               ; preds = %51
  %61 = load i32, i32* %3, align 4
  %62 = sext i32 %61 to i64
  %63 = getelementptr inbounds [101 x [101 x i32]], [101 x [101 x i32]]* %5, i64 0, i64 %62
  %64 = load i32, i32* %4, align 4
  %65 = sext i32 %64 to i64
  %66 = getelementptr inbounds [101 x i32], [101 x i32]* %63, i64 0, i64 %65
  %67 = load i32, i32* %66, align 4
  %68 = call i32 (i8*, ...) @printf(i8* getelementptr inbounds ([4 x i8], [4 x i8]* @.str.2, i64 0, i64 0), i32 %67)
  br label %70

69:                                               ; preds = %51
  br label %96

70:                                               ; preds = %60
  %71 = load i32, i32* %3, align 4
  %72 = sext i32 %71 to i64
  %73 = getelementptr inbounds [101 x [101 x i32]], [101 x [101 x i32]]* %5, i64 0, i64 %72
  %74 = load i32, i32* %4, align 4
  %75 = sext i32 %74 to i64
  %76 = getelementptr inbounds [101 x i32], [101 x i32]* %73, i64 0, i64 %75
  store i32 -1, i32* %76, align 4
  %77 = getelementptr inbounds [101 x [101 x i32]], [101 x [101 x i32]]* %5, i64 0, i64 0
  %78 = load i32, i32* %1, align 4
  %79 = load i32, i32* %2, align 4
  %80 = load i32, i32* %3, align 4
  %81 = load i32, i32* %4, align 4
  %82 = call i32 @judge([101 x i32]* %77, i32 %78, i32 %79, i32 %80, i32 %81)
  switch i32 %82, label %95 [
    i32 1, label %83
    i32 2, label %86
    i32 3, label %89
    i32 4, label %92
  ]

83:                                               ; preds = %70
  %84 = load i32, i32* %3, align 4
  %85 = add nsw i32 %84, -1
  store i32 %85, i32* %3, align 4
  br label %95

86:                                               ; preds = %70
  %87 = load i32, i32* %4, align 4
  %88 = add nsw i32 %87, 1
  store i32 %88, i32* %4, align 4
  br label %95

89:                                               ; preds = %70
  %90 = load i32, i32* %3, align 4
  %91 = add nsw i32 %90, 1
  store i32 %91, i32* %3, align 4
  br label %95

92:                                               ; preds = %70
  %93 = load i32, i32* %4, align 4
  %94 = add nsw i32 %93, -1
  store i32 %94, i32* %4, align 4
  br label %95

95:                                               ; preds = %70, %92, %89, %86, %83
  br label %43

96:                                               ; preds = %69, %43
  %97 = load i32, i32* %3, align 4
  %98 = sext i32 %97 to i64
  %99 = getelementptr inbounds [101 x [101 x i32]], [101 x [101 x i32]]* %5, i64 0, i64 %98
  %100 = load i32, i32* %4, align 4
  %101 = sext i32 %100 to i64
  %102 = getelementptr inbounds [101 x i32], [101 x i32]* %99, i64 0, i64 %101
  %103 = load i32, i32* %102, align 4
  %104 = icmp sgt i32 %103, 0
  br i1 %104, label %105, label %114

105:                                              ; preds = %96
  %106 = load i32, i32* %3, align 4
  %107 = sext i32 %106 to i64
  %108 = getelementptr inbounds [101 x [101 x i32]], [101 x [101 x i32]]* %5, i64 0, i64 %107
  %109 = load i32, i32* %4, align 4
  %110 = sext i32 %109 to i64
  %111 = getelementptr inbounds [101 x i32], [101 x i32]* %108, i64 0, i64 %110
  %112 = load i32, i32* %111, align 4
  %113 = call i32 (i8*, ...) @printf(i8* getelementptr inbounds ([4 x i8], [4 x i8]* @.str.2, i64 0, i64 0), i32 %112)
  br label %114

114:                                              ; preds = %105, %96
  br label %115

115:                                              ; preds = %114, %37
  ret void
}